; Function Attrs: mustprogress uwtable
define hidden noundef zeroext i1 @_ZN6google8protobuf2io18StringOutputStream4NextEPPvPi(ptr noundef nonnull readonly align 8 captures(none) dereferenceable(16) %0, ptr noundef writeonly captures(none) %1, ptr noundef writeonly captures(none) %2) unnamed_addr #6 align 2 personality ptr @__gxx_personality_v0 {
  %4 = alloca %"class.google::protobuf::internal::LogMessage", align 8
  %5 = alloca %"class.google::protobuf::internal::LogFinisher", align 1
  %6 = getelementptr inbounds nuw i8, ptr %0, i64 8
  %7 = load ptr, ptr %6, align 8, !tbaa !26
  %.not = icmp eq ptr %7, null
  call void @llvm.lifetime.start.p0(i64 1, ptr nonnull %5) #19
  br i1 %.not, label %8, label %11

8:                                                ; preds = %3
  call void @llvm.lifetime.start.p0(i64 56, ptr nonnull %4) #19
  call void @_ZN6google8protobuf8internal10LogMessageC1ENS0_8LogLevelEPKci(ptr noundef nonnull align 8 dereferenceable(56) %4, i32 noundef 3, ptr noundef nonnull @.str, i32 noundef 142)
  %9 = invoke noundef nonnull align 8 dereferenceable(56) ptr @_ZN6google8protobuf8internal10LogMessagelsEPKc(ptr noundef nonnull align 8 dereferenceable(56) %4, ptr noundef nonnull @.str.5)
          to label %10 unwind label %22

10:                                               ; preds = %8
  invoke void @_ZN6google8protobuf8internal11LogFinisheraSERNS1_10LogMessageE(ptr noundef nonnull align 1 dereferenceable(1) %5, ptr noundef nonnull align 8 dereferenceable(56) %9)
          to label %12 unwind label %24

11:                                               ; preds = %3
  call void @llvm.lifetime.end.p0(i64 1, ptr nonnull %5) #19
  br label %.critedge19

12:                                               ; preds = %10
  call void @llvm.lifetime.end.p0(i64 1, ptr nonnull %5) #19
  call void @_ZN6google8protobuf8internal10LogMessageD1Ev(ptr noundef nonnull align 8 dereferenceable(56) %4) #19
  call void @llvm.lifetime.end.p0(i64 56, ptr nonnull %4) #19
  %.pre = load ptr, ptr %6, align 8, !tbaa !26
  br label %.critedge19

.critedge19:                                      ; preds = %11, %12
  %13 = phi ptr [ %7, %11 ], [ %.pre, %12 ]
  %14 = getelementptr inbounds nuw i8, ptr %13, i64 8
  %15 = load i64, ptr %14, align 8, !tbaa !29
  %16 = load ptr, ptr %13, align 8, !tbaa !33
  %17 = getelementptr inbounds nuw i8, ptr %13, i64 16
  %18 = icmp eq ptr %16, %17
  br i1 %18, label %_ZNKSt7__cxx1112basic_stringIcSt11char_traitsIcESaIcEE8capacityEv.exit, label %_ZNKSt7__cxx1112basic_stringIcSt11char_traitsIcESaIcEE8capacityEv.exit.thread

_ZNKSt7__cxx1112basic_stringIcSt11char_traitsIcESaIcEE8capacityEv.exit: ; preds = %.critedge19
  %19 = icmp ult i64 %15, 16
  call void @llvm.assume(i1 %19)
  %.not32 = icmp eq i64 %15, 15
  br i1 %.not32, label %27, label %_ZNKSt7__cxx1112basic_stringIcSt11char_traitsIcESaIcEE8capacityEv.exit20

_ZNKSt7__cxx1112basic_stringIcSt11char_traitsIcESaIcEE8capacityEv.exit.thread: ; preds = %.critedge19
  %20 = load i64, ptr %17, align 8
  %21 = icmp ult i64 %15, %20
  br i1 %21, label %_ZNKSt7__cxx1112basic_stringIcSt11char_traitsIcESaIcEE8capacityEv.exit20, label %27

22:                                               ; preds = %8
  %23 = landingpad { ptr, i32 }
          cleanup
  br label %26

24:                                               ; preds = %10
  %25 = landingpad { ptr, i32 }
          cleanup
  call void @llvm.lifetime.end.p0(i64 1, ptr nonnull %5) #19
  br label %26

26:                                               ; preds = %22, %24
  %.pn = phi { ptr, i32 } [ %25, %24 ], [ %23, %22 ]
  call void @_ZN6google8protobuf8internal10LogMessageD1Ev(ptr noundef nonnull align 8 dereferenceable(56) %4) #19
  call void @llvm.lifetime.end.p0(i64 56, ptr nonnull %4) #19
  resume { ptr, i32 } %.pn

27:                                               ; preds = %_ZNKSt7__cxx1112basic_stringIcSt11char_traitsIcESaIcEE8capacityEv.exit.thread, %_ZNKSt7__cxx1112basic_stringIcSt11char_traitsIcESaIcEE8capacityEv.exit
  %28 = shl i64 %15, 1
  br label %_ZNKSt7__cxx1112basic_stringIcSt11char_traitsIcESaIcEE8capacityEv.exit20

_ZNKSt7__cxx1112basic_stringIcSt11char_traitsIcESaIcEE8capacityEv.exit20: ; preds = %_ZNKSt7__cxx1112basic_stringIcSt11char_traitsIcESaIcEE8capacityEv.exit, %_ZNKSt7__cxx1112basic_stringIcSt11char_traitsIcESaIcEE8capacityEv.exit.thread, %27
  %storemerge = phi i64 [ %28, %27 ], [ %20, %_ZNKSt7__cxx1112basic_stringIcSt11char_traitsIcESaIcEE8capacityEv.exit.thread ], [ 15, %_ZNKSt7__cxx1112basic_stringIcSt11char_traitsIcESaIcEE8capacityEv.exit ]
  %29 = add i64 %15, 2147483647
  %.sroa.speculated24 = call i64 @llvm.umin.i64(i64 %29, i64 %storemerge)
  %.sroa.speculated = call i64 @llvm.umax.i64(i64 %.sroa.speculated24, i64 16)
  call void @_ZNSt7__cxx1112basic_stringIcSt11char_traitsIcESaIcEE6resizeEmc(ptr noundef nonnull align 8 dereferenceable(32) %13, i64 noundef %.sroa.speculated, i8 noundef signext 0)
  %30 = load ptr, ptr %6, align 8, !tbaa !26
  %31 = load ptr, ptr %30, align 8, !tbaa !33
  %32 = getelementptr inbounds nuw i8, ptr %31, i64 %15
  store ptr %32, ptr %1, align 8, !tbaa !18
  %33 = load ptr, ptr %6, align 8, !tbaa !26
  %34 = getelementptr inbounds nuw i8, ptr %33, i64 8
  %35 = load i64, ptr %34, align 8, !tbaa !29
  %36 = sub i64 %35, %15
  %37 = trunc i64 %36 to i32
  store i32 %37, ptr %2, align 4, !tbaa !17
  ret i1 true
}